; Function Attrs: mustprogress uwtable
define void @_ZN7testing9TestSuite12ShuffleTestsEPNS_8internal6RandomE(ptr noundef nonnull align 8 dereferenceable(264) %0, ptr noundef %1) local_unnamed_addr #3 align 2 {
  %3 = getelementptr inbounds nuw i8, ptr %0, i64 72
  %4 = getelementptr inbounds nuw i8, ptr %0, i64 80
  %5 = load ptr, ptr %4, align 8, !tbaa !1099
  %6 = load ptr, ptr %3, align 8, !tbaa !1095
  %7 = ptrtoint ptr %5 to i64
  %8 = ptrtoint ptr %6 to i64
  %9 = sub i64 %7, %8
  %10 = lshr exact i64 %9, 2
  %11 = trunc i64 %10 to i32
  tail call void @_ZN7testing8internal12ShuffleRangeIiEEvPNS0_6RandomEiiPSt6vectorIT_SaIS5_EE(ptr noundef %1, i32 noundef 0, i32 noundef %11, ptr noundef nonnull %3)
  ret void
}